target datalayout = "e-m:e-p270:32:32-p271:32:32-p272:64:64-i64:64-i128:128-f80:128-n8:16:32:64-S128"
target triple = "x86_64-pc-linux-gnu"

%struct.__ncnn_allocator_t = type { ptr, ptr, ptr }
%"class.ncnn::Mat" = type { ptr, ptr, i64, i32, ptr, i32, i32, i32, i32, i32, i64 }

; Function Attrs: mustprogress uwtable
define hidden ptr @ncnn_mat_create_external_4d(i32 noundef %0, i32 noundef %1, i32 noundef %2, i32 noundef %3, ptr noundef %4, ptr noundef %5) #1 personality ptr @__gxx_personality_v0 {
  %7 = alloca i64, align 8
  %8 = alloca i32, align 4
  %9 = alloca ptr, align 8
  %10 = alloca i32, align 4
  %11 = alloca i32, align 4
  %12 = alloca i32, align 4
  %13 = alloca i32, align 4
  %14 = alloca ptr, align 8
  %15 = alloca i64, align 8
  %16 = alloca ptr, align 8
  %17 = alloca i32, align 4
  %18 = alloca i32, align 4
  %19 = alloca i32, align 4
  %20 = alloca i32, align 4
  %21 = alloca ptr, align 8
  %22 = alloca ptr, align 8
  %23 = alloca ptr, align 8
  %24 = alloca i32, align 4
  store i32 %0, ptr %17, align 4
  store i32 %1, ptr %18, align 4
  store i32 %2, ptr %19, align 4
  store i32 %3, ptr %20, align 4
  store ptr %4, ptr %21, align 8
  store ptr %5, ptr %22, align 8
  %25 = call noalias noundef nonnull ptr @_Znwm(i64 noundef 72) #13
  %26 = load i32, ptr %17, align 4
  %27 = load i32, ptr %18, align 4
  %28 = load i32, ptr %19, align 4
  %29 = load i32, ptr %20, align 4
  %30 = load ptr, ptr %21, align 8
  %31 = load ptr, ptr %22, align 8
  %32 = icmp ne ptr %31, null
  br i1 %32, label %33, label %37

33:                                               ; preds = %6
  %34 = load ptr, ptr %22, align 8
  %35 = getelementptr inbounds nuw %struct.__ncnn_allocator_t, ptr %34, i32 0, i32 0
  %36 = load ptr, ptr %35, align 8
  br label %38

37:                                               ; preds = %6
  br label %38

38:                                               ; preds = %37, %33
  %39 = phi ptr [ %36, %33 ], [ null, %37 ]
  store ptr %25, ptr %9, align 8
  store i32 %26, ptr %10, align 4
  store i32 %27, ptr %11, align 4
  store i32 %28, ptr %12, align 4
  store i32 %29, ptr %13, align 4
  store ptr %30, ptr %14, align 8
  store i64 4, ptr %15, align 8
  store ptr %39, ptr %16, align 8
  %40 = load ptr, ptr %9, align 8
  %41 = load ptr, ptr %14, align 8
  store ptr %41, ptr %40, align 8
  %42 = getelementptr inbounds nuw %"class.ncnn::Mat", ptr %40, i32 0, i32 1
  store ptr null, ptr %42, align 8
  %43 = getelementptr inbounds nuw %"class.ncnn::Mat", ptr %40, i32 0, i32 2
  %44 = load i64, ptr %15, align 8
  store i64 %44, ptr %43, align 8
  %45 = getelementptr inbounds nuw %"class.ncnn::Mat", ptr %40, i32 0, i32 3
  store i32 1, ptr %45, align 8
  %46 = getelementptr inbounds nuw %"class.ncnn::Mat", ptr %40, i32 0, i32 4
  %47 = load ptr, ptr %16, align 8
  store ptr %47, ptr %46, align 8
  %48 = getelementptr inbounds nuw %"class.ncnn::Mat", ptr %40, i32 0, i32 5
  store i32 4, ptr %48, align 8
  %49 = getelementptr inbounds nuw %"class.ncnn::Mat", ptr %40, i32 0, i32 6
  %50 = load i32, ptr %10, align 4
  store i32 %50, ptr %49, align 4
  %51 = getelementptr inbounds nuw %"class.ncnn::Mat", ptr %40, i32 0, i32 7
  %52 = load i32, ptr %11, align 4
  store i32 %52, ptr %51, align 8
  %53 = getelementptr inbounds nuw %"class.ncnn::Mat", ptr %40, i32 0, i32 8
  %54 = load i32, ptr %12, align 4
  store i32 %54, ptr %53, align 4
  %55 = getelementptr inbounds nuw %"class.ncnn::Mat", ptr %40, i32 0, i32 9
  %56 = load i32, ptr %13, align 4
  store i32 %56, ptr %55, align 8
  %57 = getelementptr inbounds nuw %"class.ncnn::Mat", ptr %40, i32 0, i32 6
  %58 = load i32, ptr %57, align 4
  %59 = sext i32 %58 to i64
  %60 = getelementptr inbounds nuw %"class.ncnn::Mat", ptr %40, i32 0, i32 7
  %61 = load i32, ptr %60, align 8
  %62 = sext i32 %61 to i64
  %63 = mul i64 %59, %62
  %64 = getelementptr inbounds nuw %"class.ncnn::Mat", ptr %40, i32 0, i32 8
  %65 = load i32, ptr %64, align 4
  %66 = sext i32 %65 to i64
  %67 = mul i64 %63, %66
  %68 = getelementptr inbounds nuw %"class.ncnn::Mat", ptr %40, i32 0, i32 2
  %69 = load i64, ptr %68, align 8
  %70 = mul i64 %67, %69
  store i64 %70, ptr %7, align 8
  store i32 16, ptr %8, align 4
  %71 = load i64, ptr %7, align 8
  %72 = load i32, ptr %8, align 4
  %73 = sext i32 %72 to i64
  %74 = add i64 %71, %73
  %75 = sub i64 %74, 1
  %76 = load i32, ptr %8, align 4
  %77 = sub nsw i32 0, %76
  %78 = sext i32 %77 to i64
  %79 = and i64 %75, %78
  %80 = getelementptr inbounds nuw %"class.ncnn::Mat", ptr %40, i32 0, i32 2
  %81 = load i64, ptr %80, align 8
  %82 = udiv i64 %79, %81
  %83 = getelementptr inbounds nuw %"class.ncnn::Mat", ptr %40, i32 0, i32 10
  store i64 %82, ptr %83, align 8
  br label %84

84:                                               ; preds = %38
  ret ptr %25

85:                                               ; No predecessors!
  %86 = landingpad { ptr, i32 }
          cleanup
  %87 = extractvalue { ptr, i32 } %86, 0
  store ptr %87, ptr %23, align 8
  %88 = extractvalue { ptr, i32 } %86, 1
  store i32 %88, ptr %24, align 4
  call void @_ZdlPvm(ptr noundef %25, i64 noundef 72) #14
  br label %89

89:                                               ; preds = %85
  %90 = load ptr, ptr %23, align 8
  %91 = load i32, ptr %24, align 4
  %92 = insertvalue { ptr, i32 } poison, ptr %90, 0
  %93 = insertvalue { ptr, i32 } %92, i32 %91, 1
  resume { ptr, i32 } %93
}